target datalayout = "e-m:e-p270:32:32-p271:32:32-p272:64:64-i64:64-i128:128-f80:128-n8:16:32:64-S128"
target triple = "x86_64-pc-linux-gnu"

%struct.sackd_node_t = type { ptr, ptr, i64, i16 }

; Function Attrs: nounwind uwtable
define internal void @_destroy_sackd_node(ptr noundef %0) #0 {
  %2 = alloca ptr, align 8
  %3 = alloca ptr, align 8
  %4 = alloca i32, align 4
  store ptr %0, ptr %2, align 8
  call void @llvm.lifetime.start.p0(i64 8, ptr %3) #7
  %5 = load ptr, ptr %2, align 8
  store ptr %5, ptr %3, align 8
  %6 = load ptr, ptr %3, align 8
  %7 = icmp ne ptr %6, null
  br i1 %7, label %9, label %8

8:                                                ; preds = %1
  store i32 1, ptr %4, align 4
  br label %14

9:                                                ; preds = %1
  %10 = load ptr, ptr %3, align 8
  %11 = getelementptr inbounds nuw %struct.sackd_node_t, ptr %10, i32 0, i32 0
  call void @slurm_xfree(ptr noundef %11)
  %12 = load ptr, ptr %3, align 8
  %13 = getelementptr inbounds nuw %struct.sackd_node_t, ptr %12, i32 0, i32 1
  call void @slurm_xfree(ptr noundef %13)
  call void @slurm_xfree(ptr noundef %3)
  store i32 0, ptr %4, align 4
  br label %14

14:                                               ; preds = %9, %8
  call void @llvm.lifetime.end.p0(i64 8, ptr %3) #7
  %15 = load i32, ptr %4, align 4
  switch i32 %15, label %17 [
    i32 0, label %16
    i32 1, label %16
  ]

16:                                               ; preds = %14, %14
  ret void

17:                                               ; preds = %14
  unreachable
}